; Function Attrs: nounwind uwtable
define noalias noundef ptr @Saig_MvManFindConstBinaryFlops(ptr noundef readonly captures(none) %0, ptr noundef writeonly captures(none) %1) local_unnamed_addr #0 {
  %3 = getelementptr inbounds nuw i8, ptr %0, i64 20
  %4 = load i32, ptr %3, align 4, !tbaa !48
  %5 = tail call noalias dereferenceable_or_null(16) ptr @malloc(i64 noundef 16) #19
  %6 = add i32 %4, -1
  %or.cond.i = icmp ult i32 %6, 15
  %spec.store.select.i = select i1 %or.cond.i, i32 16, i32 %4
  %7 = getelementptr inbounds nuw i8, ptr %5, i64 4
  store i32 0, ptr %7, align 4, !tbaa !84
  store i32 %spec.store.select.i, ptr %5, align 8, !tbaa !85
  %.not.i = icmp eq i32 %spec.store.select.i, 0
  br i1 %.not.i, label %Vec_IntAlloc.exit, label %8

8:                                                ; preds = %2
  %9 = sext i32 %spec.store.select.i to i64
  %10 = shl nsw i64 %9, 2
  %11 = tail call noalias ptr @malloc(i64 noundef %10) #19
  br label %Vec_IntAlloc.exit

Vec_IntAlloc.exit:                                ; preds = %2, %8
  %12 = phi ptr [ %11, %8 ], [ null, %2 ]
  %13 = getelementptr inbounds nuw i8, ptr %5, i64 8
  store ptr %12, ptr %13, align 8, !tbaa !74
  %14 = tail call noalias dereferenceable_or_null(16) ptr @malloc(i64 noundef 16) #19
  %15 = getelementptr inbounds nuw i8, ptr %14, i64 4
  store i32 0, ptr %15, align 4, !tbaa !84
  store i32 %spec.store.select.i, ptr %14, align 8, !tbaa !85
  br i1 %.not.i, label %Vec_IntAlloc.exit32, label %16

16:                                               ; preds = %Vec_IntAlloc.exit
  %17 = sext i32 %spec.store.select.i to i64
  %18 = shl nsw i64 %17, 2
  %19 = tail call noalias ptr @malloc(i64 noundef %18) #19
  br label %Vec_IntAlloc.exit32

Vec_IntAlloc.exit32:                              ; preds = %Vec_IntAlloc.exit, %16
  %20 = phi ptr [ %19, %16 ], [ null, %Vec_IntAlloc.exit ]
  %21 = getelementptr inbounds nuw i8, ptr %14, i64 8
  store ptr %20, ptr %21, align 8, !tbaa !74
  %22 = icmp sgt i32 %4, 0
  br i1 %22, label %.preheader.lr.ph, label %._crit_edge

.preheader.lr.ph:                                 ; preds = %Vec_IntAlloc.exit32
  %23 = getelementptr inbounds nuw i8, ptr %0, i64 80
  br label %.preheader

.preheader:                                       ; preds = %.preheader.lr.ph, %.critedge.thread
  %24 = phi ptr [ %12, %.preheader.lr.ph ], [ %.pre.i51, %.critedge.thread ]
  %indvars.iv47 = phi i64 [ 0, %.preheader.lr.ph ], [ %indvars.iv.next48, %.critedge.thread ]
  %25 = load ptr, ptr %23, align 8, !tbaa !55
  %26 = getelementptr i8, ptr %25, i64 4
  %.val27 = load i32, ptr %26, align 4, !tbaa !21
  %27 = icmp sgt i32 %.val27, 1
  br i1 %27, label %.lr.ph, label %.critedge.thread53

.lr.ph:                                           ; preds = %.preheader
  %28 = getelementptr i8, ptr %25, i64 8
  %.val28 = load ptr, ptr %28, align 8, !tbaa !24
  %wide.trip.count = zext nneg i32 %.val27 to i64
  br label %29

29:                                               ; preds = %.lr.ph, %35
  %indvars.iv = phi i64 [ 1, %.lr.ph ], [ %indvars.iv.next, %35 ]
  %.044 = phi i32 [ 1, %.lr.ph ], [ %spec.select, %35 ]
  %30 = getelementptr inbounds nuw ptr, ptr %.val28, i64 %indvars.iv
  %31 = load ptr, ptr %30, align 8, !tbaa !27
  %32 = getelementptr inbounds nuw i32, ptr %31, i64 %indvars.iv47
  %33 = getelementptr inbounds nuw i8, ptr %32, i64 4
  %34 = load i32, ptr %33, align 4, !tbaa !78
  %.not41 = icmp eq i32 %34, 536870910
  br i1 %.not41, label %.critedge.thread, label %35

35:                                               ; preds = %29
  %.not = icmp eq i32 %34, 1
  %spec.select = select i1 %.not, i32 %.044, i32 0
  %indvars.iv.next = add nuw nsw i64 %indvars.iv, 1
  %exitcond.not = icmp eq i64 %indvars.iv.next, %wide.trip.count
  br i1 %exitcond.not, label %.critedge, label %29, !llvm.loop !100

.critedge:                                        ; preds = %35
  %36 = icmp eq i32 %spec.select, 0
  br i1 %36, label %56, label %.critedge.thread53

.critedge.thread53:                               ; preds = %.preheader, %.critedge
  %37 = load i32, ptr %7, align 4, !tbaa !84
  %38 = load i32, ptr %5, align 8, !tbaa !85
  %39 = icmp eq i32 %37, %38
  br i1 %39, label %40, label %Vec_IntPush.exit

40:                                               ; preds = %.critedge.thread53
  %41 = icmp slt i32 %37, 16
  br i1 %41, label %42, label %47

42:                                               ; preds = %40
  %.not9.i.i = icmp eq ptr %24, null
  br i1 %.not9.i.i, label %45, label %43

43:                                               ; preds = %42
  %44 = tail call dereferenceable_or_null(64) ptr @realloc(ptr noundef nonnull %24, i64 noundef 64) #21
  br label %Vec_IntPush.exit.sink.split

45:                                               ; preds = %42
  %46 = tail call noalias dereferenceable_or_null(64) ptr @malloc(i64 noundef 64) #19
  br label %Vec_IntPush.exit.sink.split

47:                                               ; preds = %40
  %48 = shl nuw nsw i32 %37, 1
  %.not9.i9.i = icmp eq ptr %24, null
  %49 = zext nneg i32 %48 to i64
  %50 = shl nuw nsw i64 %49, 2
  br i1 %.not9.i9.i, label %53, label %51

51:                                               ; preds = %47
  %52 = tail call ptr @realloc(ptr noundef nonnull %24, i64 noundef %50) #21
  br label %Vec_IntPush.exit.sink.split

53:                                               ; preds = %47
  %54 = tail call noalias ptr @malloc(i64 noundef %50) #19
  br label %Vec_IntPush.exit.sink.split

Vec_IntPush.exit.sink.split:                      ; preds = %51, %53, %43, %45
  %.sink55 = phi ptr [ %44, %43 ], [ %46, %45 ], [ %52, %51 ], [ %54, %53 ]
  %.sink = phi i32 [ 16, %43 ], [ 16, %45 ], [ %48, %51 ], [ %48, %53 ]
  store ptr %.sink55, ptr %13, align 8, !tbaa !74
  store i32 %.sink, ptr %5, align 8, !tbaa !85
  br label %Vec_IntPush.exit

Vec_IntPush.exit:                                 ; preds = %Vec_IntPush.exit.sink.split, %.critedge.thread53
  %.pre.i52 = phi ptr [ %24, %.critedge.thread53 ], [ %.sink55, %Vec_IntPush.exit.sink.split ]
  %55 = add nsw i32 %37, 1
  store i32 %55, ptr %7, align 4, !tbaa !84
  br label %.critedge.thread.sink.split

56:                                               ; preds = %.critedge
  %57 = load i32, ptr %15, align 4, !tbaa !84
  %58 = load i32, ptr %14, align 8, !tbaa !85
  %59 = icmp eq i32 %57, %58
  br i1 %59, label %60, label %.Vec_IntGrow.exit10_crit_edge.i33

.Vec_IntGrow.exit10_crit_edge.i33:                ; preds = %56
  %.pre.i35 = load ptr, ptr %21, align 8, !tbaa !74
  br label %Vec_IntPush.exit39

60:                                               ; preds = %56
  %61 = icmp slt i32 %57, 16
  br i1 %61, label %62, label %69

62:                                               ; preds = %60
  %63 = load ptr, ptr %21, align 8, !tbaa !74
  %.not9.i.i37 = icmp eq ptr %63, null
  br i1 %.not9.i.i37, label %66, label %64

64:                                               ; preds = %62
  %65 = tail call dereferenceable_or_null(64) ptr @realloc(ptr noundef nonnull %63, i64 noundef 64) #21
  br label %Vec_IntGrow.exit.i38

66:                                               ; preds = %62
  %67 = tail call noalias dereferenceable_or_null(64) ptr @malloc(i64 noundef 64) #19
  br label %Vec_IntGrow.exit.i38

Vec_IntGrow.exit.i38:                             ; preds = %66, %64
  %68 = phi ptr [ %65, %64 ], [ %67, %66 ]
  store ptr %68, ptr %21, align 8, !tbaa !74
  store i32 16, ptr %14, align 8, !tbaa !85
  br label %Vec_IntPush.exit39

69:                                               ; preds = %60
  %70 = shl nuw nsw i32 %57, 1
  %71 = load ptr, ptr %21, align 8, !tbaa !74
  %.not9.i9.i36 = icmp eq ptr %71, null
  %72 = zext nneg i32 %70 to i64
  %73 = shl nuw nsw i64 %72, 2
  br i1 %.not9.i9.i36, label %76, label %74

74:                                               ; preds = %69
  %75 = tail call ptr @realloc(ptr noundef nonnull %71, i64 noundef %73) #21
  br label %78

76:                                               ; preds = %69
  %77 = tail call noalias ptr @malloc(i64 noundef %73) #19
  br label %78

78:                                               ; preds = %76, %74
  %79 = phi ptr [ %75, %74 ], [ %77, %76 ]
  store ptr %79, ptr %21, align 8, !tbaa !74
  store i32 %70, ptr %14, align 8, !tbaa !85
  br label %Vec_IntPush.exit39

Vec_IntPush.exit39:                               ; preds = %.Vec_IntGrow.exit10_crit_edge.i33, %Vec_IntGrow.exit.i38, %78
  %80 = phi ptr [ %.pre.i35, %.Vec_IntGrow.exit10_crit_edge.i33 ], [ %79, %78 ], [ %68, %Vec_IntGrow.exit.i38 ]
  %81 = add nsw i32 %57, 1
  store i32 %81, ptr %15, align 4, !tbaa !84
  br label %.critedge.thread.sink.split

.critedge.thread.sink.split:                      ; preds = %Vec_IntPush.exit39, %Vec_IntPush.exit
  %.sink59 = phi i32 [ %37, %Vec_IntPush.exit ], [ %57, %Vec_IntPush.exit39 ]
  %.pre.i52.sink = phi ptr [ %.pre.i52, %Vec_IntPush.exit ], [ %80, %Vec_IntPush.exit39 ]
  %.pre.i51.ph = phi ptr [ %.pre.i52, %Vec_IntPush.exit ], [ %24, %Vec_IntPush.exit39 ]
  %82 = sext i32 %.sink59 to i64
  %83 = getelementptr inbounds i32, ptr %.pre.i52.sink, i64 %82
  %84 = trunc nuw nsw i64 %indvars.iv47 to i32
  store i32 %84, ptr %83, align 4, !tbaa !78
  br label %.critedge.thread

.critedge.thread:                                 ; preds = %29, %.critedge.thread.sink.split
  %.pre.i51 = phi ptr [ %.pre.i51.ph, %.critedge.thread.sink.split ], [ %24, %29 ]
  %indvars.iv.next48 = add nuw nsw i64 %indvars.iv47, 1
  %85 = load i32, ptr %3, align 4, !tbaa !48
  %86 = sext i32 %85 to i64
  %87 = icmp slt i64 %indvars.iv.next48, %86
  br i1 %87, label %.preheader, label %._crit_edge, !llvm.loop !101

._crit_edge:                                      ; preds = %.critedge.thread, %Vec_IntAlloc.exit32
  store ptr %14, ptr %1, align 8, !tbaa !73
  ret ptr %5
}